target datalayout = "e-m:e-p270:32:32-p271:32:32-p272:64:64-i64:64-i128:128-f80:128-n8:16:32:64-S128"
target triple = "x86_64-pc-linux-gnu"

%"class.llvm::RISCVAsmBackend" = type { %"class.llvm::MCAsmBackend", ptr, i8, i8, i8, ptr }
%"class.llvm::MCAsmBackend" = type { ptr, i32, i32 }
%"class.std::unique_ptr.203" = type { %"struct.std::__uniq_ptr_data.204" }
%"struct.std::__uniq_ptr_data.204" = type { %"class.std::__uniq_ptr_impl.205" }
%"class.std::__uniq_ptr_impl.205" = type { %"class.std::tuple.206" }
%"class.std::tuple.206" = type { %"struct.std::_Tuple_impl.207" }
%"struct.std::_Tuple_impl.207" = type { %"struct.std::_Head_base.210" }
%"struct.std::_Head_base.210" = type { ptr }

; Function Attrs: mustprogress nounwind uwtable
define dso_local void @_ZNK4llvm15RISCVAsmBackend24createObjectTargetWriterEv(ptr dead_on_unwind noalias writable sret(%"class.std::unique_ptr.203") align 8 %0, ptr noundef nonnull align 8 dereferenceable(40) %1) unnamed_addr #1 align 2 {
  %3 = alloca ptr, align 8
  %4 = alloca ptr, align 8
  store ptr %0, ptr %3, align 8
  store ptr %1, ptr %4, align 8
  %5 = load ptr, ptr %4, align 8
  %6 = getelementptr inbounds nuw %"class.llvm::RISCVAsmBackend", ptr %5, i32 0, i32 2
  %7 = load i8, ptr %6, align 8
  %8 = getelementptr inbounds nuw %"class.llvm::RISCVAsmBackend", ptr %5, i32 0, i32 3
  %9 = load i8, ptr %8, align 1
  %10 = trunc i8 %9 to i1
  call void @_ZN4llvm26createRISCVELFObjectWriterEhb(ptr dead_on_unwind writable sret(%"class.std::unique_ptr.203") align 8 %0, i8 noundef zeroext %7, i1 noundef zeroext %10)
  ret void
}