; Function Attrs: mustprogress nounwind uwtable
define dso_local void @_ZNK4llvm15RISCVAsmBackend24createObjectTargetWriterEv(ptr dead_on_unwind noalias writable sret(%"class.std::unique_ptr.203") align 8 %0, ptr nocapture noundef nonnull readonly align 8 dereferenceable(40) %1) unnamed_addr #0 align 2 {
  %3 = getelementptr inbounds nuw i8, ptr %1, i64 24
  %4 = load i8, ptr %3, align 8
  %5 = getelementptr inbounds nuw i8, ptr %1, i64 25
  %6 = load i8, ptr %5, align 1
  %7 = trunc i8 %6 to i1
  tail call void @_ZN4llvm26createRISCVELFObjectWriterEhb(ptr dead_on_unwind writable sret(%"class.std::unique_ptr.203") align 8 %0, i8 noundef zeroext %4, i1 noundef zeroext %7) #18
  ret void
}